; Function Attrs: nounwind sspstrong uwtable
define internal noundef zeroext i1 @blkdebug_debug_is_suspended(ptr noundef readonly captures(none) %bs, ptr noundef readonly captures(none) %tag) #0 {
entry:
  %opaque = getelementptr inbounds nuw i8, ptr %bs, i64 24
  %0 = load ptr, ptr %opaque, align 8
  %lock = getelementptr inbounds nuw i8, ptr %0, i64 488
  %1 = load atomic i64, ptr @qemu_mutex_lock_func monotonic, align 8
  %2 = inttoptr i64 %1 to ptr
  tail call void %2(ptr noundef nonnull %lock, ptr noundef nonnull @.str.53, i32 noundef 122) #13
  %suspended_reqs = getelementptr inbounds nuw i8, ptr %0, i64 480
  %r.05 = load ptr, ptr %suspended_reqs, align 8
  %tobool.not6.not = icmp eq ptr %r.05, null
  br i1 %tobool.not6.not, label %glib_autoptr_cleanup_QemuLockable.exit, label %for.body

for.cond:                                         ; preds = %for.body
  %next = getelementptr inbounds nuw i8, ptr %r.07, i64 16
  %r.0 = load ptr, ptr %next, align 8
  %tobool.not.not = icmp eq ptr %r.0, null
  br i1 %tobool.not.not, label %glib_autoptr_cleanup_QemuLockable.exit, label %for.body, !llvm.loop !11

for.body:                                         ; preds = %entry, %for.cond
  %r.07 = phi ptr [ %r.0, %for.cond ], [ %r.05, %entry ]
  %tag4 = getelementptr inbounds nuw i8, ptr %r.07, i64 8
  %3 = load ptr, ptr %tag4, align 8
  %call5 = tail call i32 @strcmp(ptr noundef nonnull dereferenceable(1) %3, ptr noundef nonnull dereferenceable(1) %tag) #14
  %tobool6.not = icmp eq i32 %call5, 0
  br i1 %tobool6.not, label %glib_autoptr_cleanup_QemuLockable.exit, label %for.cond

glib_autoptr_cleanup_QemuLockable.exit:           ; preds = %for.body, %for.cond, %entry
  %tobool.not.lcssa = phi i1 [ false, %entry ], [ %tobool6.not, %for.cond ], [ %tobool6.not, %for.body ]
  tail call void @qemu_mutex_unlock_impl(ptr noundef nonnull %lock, ptr noundef nonnull @.str.53, i32 noundef 132) #13
  ret i1 %tobool.not.lcssa
}